; ModuleID = 'Execution.cpp'
source_filename = "Execution.cpp"
target datalayout = "e-m:e-i64:64-f80:128-n8:16:32:64-S128"
target triple = "x86_64-pc-linux-gnu"

%"class.std::ios_base::Init" = type { i8 }
%class.Execution = type { %class.CargoStream, %class.OutputStream }
%class.CargoStream = type { %"class.std::__cxx11::basic_string", %"class.std::__cxx11::basic_string" }
%"class.std::__cxx11::basic_string" = type { %"struct.std::__cxx11::basic_string<char, std::char_traits<char>, std::allocator<char> >::_Alloc_hider", i64, %union.anon }
%"struct.std::__cxx11::basic_string<char, std::char_traits<char>, std::allocator<char> >::_Alloc_hider" = type { i8* }
%union.anon = type { i64, [8 x i8] }
%class.OutputStream = type { %"class.std::__cxx11::basic_string", %"class.std::__cxx11::basic_string" }

$_ZN11CargoStreamD2Ev = comdat any

@_ZStL8__ioinit = internal global %"class.std::ios_base::Init" zeroinitializer, align 1
@__dso_handle = external hidden global i8
@llvm.global_ctors = appending global [1 x { i32, void ()*, i8* }] [{ i32, void ()*, i8* } { i32 65535, void ()* @_GLOBAL__sub_I_Execution.cpp, i8* null }]

@_ZN9ExecutionC1Ev = alias void (%class.Execution*), void (%class.Execution*)* @_ZN9ExecutionC2Ev

; Function Attrs: noinline uwtable
define internal void @__cxx_global_var_init() #0 section ".text.startup" {
  call void @_ZNSt8ios_base4InitC1Ev(%"class.std::ios_base::Init"* @_ZStL8__ioinit)
  %1 = call i32 @__cxa_atexit(void (i8*)* bitcast (void (%"class.std::ios_base::Init"*)* @_ZNSt8ios_base4InitD1Ev to void (i8*)*), i8* getelementptr inbounds (%"class.std::ios_base::Init", %"class.std::ios_base::Init"* @_ZStL8__ioinit, i32 0, i32 0), i8* @__dso_handle) #3
  ret void
}

declare void @_ZNSt8ios_base4InitC1Ev(%"class.std::ios_base::Init"*) unnamed_addr #1

; Function Attrs: nounwind
declare void @_ZNSt8ios_base4InitD1Ev(%"class.std::ios_base::Init"*) unnamed_addr #2

; Function Attrs: nounwind
declare i32 @__cxa_atexit(void (i8*)*, i8*, i8*) #3

; Function Attrs: noinline optnone uwtable
define void @_ZN9ExecutionC2Ev(%class.Execution*) unnamed_addr #4 align 2 personality i8* bitcast (i32 (...)* @__gxx_personality_v0 to i8*) {
  %2 = alloca %class.Execution*, align 8
  %3 = alloca i8*
  %4 = alloca i32
  store %class.Execution* %0, %class.Execution** %2, align 8
  %5 = load %class.Execution*, %class.Execution** %2, align 8
  %6 = getelementptr inbounds %class.Execution, %class.Execution* %5, i32 0, i32 0
  call void @_ZN11CargoStreamC1Ev(%class.CargoStream* %6)
  %7 = getelementptr inbounds %class.Execution, %class.Execution* %5, i32 0, i32 1
  invoke void @_ZN12OutputStreamC1Ev(%class.OutputStream* %7)
          to label %8 unwind label %9

; <label>:8:                                      ; preds = %1
  ret void

; <label>:9:                                      ; preds = %1
  %10 = landingpad { i8*, i32 }
          cleanup
  %11 = extractvalue { i8*, i32 } %10, 0
  store i8* %11, i8** %3, align 8
  %12 = extractvalue { i8*, i32 } %10, 1
  store i32 %12, i32* %4, align 4
  call void @_ZN11CargoStreamD2Ev(%class.CargoStream* %6) #3
  br label %13

; <label>:13:                                     ; preds = %9
  %14 = load i8*, i8** %3, align 8
  %15 = load i32, i32* %4, align 4
  %16 = insertvalue { i8*, i32 } undef, i8* %14, 0
  %17 = insertvalue { i8*, i32 } %16, i32 %15, 1
  resume { i8*, i32 } %17
}

declare void @_ZN11CargoStreamC1Ev(%class.CargoStream*) unnamed_addr #1

declare void @_ZN12OutputStreamC1Ev(%class.OutputStream*) unnamed_addr #1

declare i32 @__gxx_personality_v0(...)

; Function Attrs: noinline nounwind optnone uwtable
define linkonce_odr void @_ZN11CargoStreamD2Ev(%class.CargoStream*) unnamed_addr #5 comdat align 2 {
  %2 = alloca %class.CargoStream*, align 8
  store %class.CargoStream* %0, %class.CargoStream** %2, align 8
  %3 = load %class.CargoStream*, %class.CargoStream** %2, align 8
  %4 = getelementptr inbounds %class.CargoStream, %class.CargoStream* %3, i32 0, i32 1
  call void @_ZNSt7__cxx1112basic_stringIcSt11char_traitsIcESaIcEED1Ev(%"class.std::__cxx11::basic_string"* %4) #3
  %5 = getelementptr inbounds %class.CargoStream, %class.CargoStream* %3, i32 0, i32 0
  call void @_ZNSt7__cxx1112basic_stringIcSt11char_traitsIcESaIcEED1Ev(%"class.std::__cxx11::basic_string"* %5) #3
  ret void
}

; Function Attrs: noinline optnone uwtable
define void @_ZN9Execution20setInputSourceWeightENSt7__cxx1112basic_stringIcSt11char_traitsIcESaIcEEE(%class.Execution*, %"class.std::__cxx11::basic_string"*) #4 align 2 personality i8* bitcast (i32 (...)* @__gxx_personality_v0 to i8*) {
  %3 = alloca %class.Execution*, align 8
  %4 = alloca %"class.std::__cxx11::basic_string", align 8
  %5 = alloca i8*
  %6 = alloca i32
  store %class.Execution* %0, %class.Execution** %3, align 8
  %7 = load %class.Execution*, %class.Execution** %3, align 8
  %8 = getelementptr inbounds %class.Execution, %class.Execution* %7, i32 0, i32 0
  call void @_ZNSt7__cxx1112basic_stringIcSt11char_traitsIcESaIcEEC1ERKS4_(%"class.std::__cxx11::basic_string"* %4, %"class.std::__cxx11::basic_string"* dereferenceable(32) %1)
  invoke void @_ZN11CargoStream9setWeightENSt7__cxx1112basic_stringIcSt11char_traitsIcESaIcEEE(%class.CargoStream* %8, %"class.std::__cxx11::basic_string"* %4)
          to label %9 unwind label %10

; <label>:9:                                      ; preds = %2
  call void @_ZNSt7__cxx1112basic_stringIcSt11char_traitsIcESaIcEED1Ev(%"class.std::__cxx11::basic_string"* %4) #3
  call void @_ZN9Execution7executeEv(%class.Execution* %7)
  ret void

; <label>:10:                                     ; preds = %2
  %11 = landingpad { i8*, i32 }
          cleanup
  %12 = extractvalue { i8*, i32 } %11, 0
  store i8* %12, i8** %5, align 8
  %13 = extractvalue { i8*, i32 } %11, 1
  store i32 %13, i32* %6, align 4
  call void @_ZNSt7__cxx1112basic_stringIcSt11char_traitsIcESaIcEED1Ev(%"class.std::__cxx11::basic_string"* %4) #3
  br label %14

; <label>:14:                                     ; preds = %10
  %15 = load i8*, i8** %5, align 8
  %16 = load i32, i32* %6, align 4
  %17 = insertvalue { i8*, i32 } undef, i8* %15, 0
  %18 = insertvalue { i8*, i32 } %17, i32 %16, 1
  resume { i8*, i32 } %18
}

declare void @_ZN11CargoStream9setWeightENSt7__cxx1112basic_stringIcSt11char_traitsIcESaIcEEE(%class.CargoStream*, %"class.std::__cxx11::basic_string"*) #1

declare void @_ZNSt7__cxx1112basic_stringIcSt11char_traitsIcESaIcEEC1ERKS4_(%"class.std::__cxx11::basic_string"*, %"class.std::__cxx11::basic_string"* dereferenceable(32)) unnamed_addr #1

; Function Attrs: nounwind
declare void @_ZNSt7__cxx1112basic_stringIcSt11char_traitsIcESaIcEED1Ev(%"class.std::__cxx11::basic_string"*) unnamed_addr #2

; Function Attrs: noinline optnone uwtable
define void @_ZN9Execution7executeEv(%class.Execution*) #4 align 2 personality i8* bitcast (i32 (...)* @__gxx_personality_v0 to i8*) {
  %2 = alloca %class.Execution*, align 8
  %3 = alloca %"class.std::__cxx11::basic_string", align 8
  %4 = alloca i8*
  %5 = alloca i32
  store %class.Execution* %0, %class.Execution** %2, align 8
  %6 = load %class.Execution*, %class.Execution** %2, align 8
  %7 = getelementptr inbounds %class.Execution, %class.Execution* %6, i32 0, i32 1
  %8 = getelementptr inbounds %class.Execution, %class.Execution* %6, i32 0, i32 0
  call void @_ZN11CargoStream9getWeightB5cxx11Ev(%"class.std::__cxx11::basic_string"* sret %3, %class.CargoStream* %8)
  invoke void @_ZN12OutputStream9setWeightENSt7__cxx1112basic_stringIcSt11char_traitsIcESaIcEEE(%class.OutputStream* %7, %"class.std::__cxx11::basic_string"* %3)
          to label %9 unwind label %10

; <label>:9:                                      ; preds = %1
  call void @_ZNSt7__cxx1112basic_stringIcSt11char_traitsIcESaIcEED1Ev(%"class.std::__cxx11::basic_string"* %3) #3
  ret void

; <label>:10:                                     ; preds = %1
  %11 = landingpad { i8*, i32 }
          cleanup
  %12 = extractvalue { i8*, i32 } %11, 0
  store i8* %12, i8** %4, align 8
  %13 = extractvalue { i8*, i32 } %11, 1
  store i32 %13, i32* %5, align 4
  call void @_ZNSt7__cxx1112basic_stringIcSt11char_traitsIcESaIcEED1Ev(%"class.std::__cxx11::basic_string"* %3) #3
  br label %14

; <label>:14:                                     ; preds = %10
  %15 = load i8*, i8** %4, align 8
  %16 = load i32, i32* %5, align 4
  %17 = insertvalue { i8*, i32 } undef, i8* %15, 0
  %18 = insertvalue { i8*, i32 } %17, i32 %16, 1
  resume { i8*, i32 } %18
}

declare void @_ZN12OutputStream9setWeightENSt7__cxx1112basic_stringIcSt11char_traitsIcESaIcEEE(%class.OutputStream*, %"class.std::__cxx11::basic_string"*) #1

declare void @_ZN11CargoStream9getWeightB5cxx11Ev(%"class.std::__cxx11::basic_string"* sret, %class.CargoStream*) #1

; Function Attrs: noinline uwtable
define internal void @_GLOBAL__sub_I_Execution.cpp() #0 section ".text.startup" {
  call void @__cxx_global_var_init()
  ret void
}

attributes #0 = { noinline uwtable "correctly-rounded-divide-sqrt-fp-math"="false" "disable-tail-calls"="false" "less-precise-fpmad"="false" "no-frame-pointer-elim"="true" "no-frame-pointer-elim-non-leaf" "no-infs-fp-math"="false" "no-jump-tables"="false" "no-nans-fp-math"="false" "no-signed-zeros-fp-math"="false" "no-trapping-math"="false" "stack-protector-buffer-size"="8" "target-cpu"="x86-64" "target-features"="+fxsr,+mmx,+sse,+sse2,+x87" "unsafe-fp-math"="false" "use-soft-float"="false" }
attributes #1 = { "correctly-rounded-divide-sqrt-fp-math"="false" "disable-tail-calls"="false" "less-precise-fpmad"="false" "no-frame-pointer-elim"="true" "no-frame-pointer-elim-non-leaf" "no-infs-fp-math"="false" "no-nans-fp-math"="false" "no-signed-zeros-fp-math"="false" "no-trapping-math"="false" "stack-protector-buffer-size"="8" "target-cpu"="x86-64" "target-features"="+fxsr,+mmx,+sse,+sse2,+x87" "unsafe-fp-math"="false" "use-soft-float"="false" }
attributes #2 = { nounwind "correctly-rounded-divide-sqrt-fp-math"="false" "disable-tail-calls"="false" "less-precise-fpmad"="false" "no-frame-pointer-elim"="true" "no-frame-pointer-elim-non-leaf" "no-infs-fp-math"="false" "no-nans-fp-math"="false" "no-signed-zeros-fp-math"="false" "no-trapping-math"="false" "stack-protector-buffer-size"="8" "target-cpu"="x86-64" "target-features"="+fxsr,+mmx,+sse,+sse2,+x87" "unsafe-fp-math"="false" "use-soft-float"="false" }
attributes #3 = { nounwind }
attributes #4 = { noinline optnone uwtable "correctly-rounded-divide-sqrt-fp-math"="false" "disable-tail-calls"="false" "less-precise-fpmad"="false" "no-frame-pointer-elim"="true" "no-frame-pointer-elim-non-leaf" "no-infs-fp-math"="false" "no-jump-tables"="false" "no-nans-fp-math"="false" "no-signed-zeros-fp-math"="false" "no-trapping-math"="false" "stack-protector-buffer-size"="8" "target-cpu"="x86-64" "target-features"="+fxsr,+mmx,+sse,+sse2,+x87" "unsafe-fp-math"="false" "use-soft-float"="false" }
attributes #5 = { noinline nounwind optnone uwtable "correctly-rounded-divide-sqrt-fp-math"="false" "disable-tail-calls"="false" "less-precise-fpmad"="false" "no-frame-pointer-elim"="true" "no-frame-pointer-elim-non-leaf" "no-infs-fp-math"="false" "no-jump-tables"="false" "no-nans-fp-math"="false" "no-signed-zeros-fp-math"="false" "no-trapping-math"="false" "stack-protector-buffer-size"="8" "target-cpu"="x86-64" "target-features"="+fxsr,+mmx,+sse,+sse2,+x87" "unsafe-fp-math"="false" "use-soft-float"="false" }

!llvm.module.flags = !{!0}
!llvm.ident = !{!1}

!0 = !{i32 1, !"wchar_size", i32 4}
!1 = !{!"clang version 6.0.0-1ubuntu2 (tags/RELEASE_600/final)"}
